; Function Attrs: mustprogress nofree norecurse nosync nounwind willreturn memory(none) uwtable
define dso_local range(i64 0, -9222949824389710820) i64 @lzma_block_buffer_bound(i64 noundef %0) local_unnamed_addr #0 {
  %2 = icmp ugt i64 %0, 9223372036854774716
  br i1 %2, label %lzma_block_buffer_bound64.exit, label %3

3:                                                ; preds = %1
  %4 = add nuw i64 %0, 65535
  %5 = lshr i64 %4, 16
  %6 = mul nuw nsw i64 %5, 3
  %7 = sub nuw nsw i64 9223372036854774715, %6
  %8 = icmp samesign ult i64 %7, %0
  br i1 %8, label %lzma_block_buffer_bound64.exit, label %lzma2_bound.exit.i

lzma2_bound.exit.i:                               ; preds = %3
  %9 = add nuw nsw i64 %0, 4
  %10 = add nuw i64 %9, %6
  %11 = and i64 %10, -4
  %12 = add nuw i64 %11, 92
  br label %lzma_block_buffer_bound64.exit

lzma_block_buffer_bound64.exit:                   ; preds = %1, %3, %lzma2_bound.exit.i
  %13 = phi i64 [ %12, %lzma2_bound.exit.i ], [ 0, %1 ], [ 0, %3 ]
  ret i64 %13
}